target datalayout = "e-m:e-p270:32:32-p271:32:32-p272:64:64-i64:64-i128:128-f80:128-n8:16:32:64-S128"
target triple = "x86_64-pc-linux-gnu"

@.str.71 = private unnamed_addr constant [30 x i8] c"ACCT rejected by server: %03d\00", align 1

; Function Attrs: nounwind uwtable
define internal i32 @ftp_state_acct_resp(ptr noundef %0, i32 noundef %1) #0 {
  %3 = alloca ptr, align 8
  %4 = alloca i32, align 4
  %5 = alloca i32, align 4
  store ptr %0, ptr %3, align 8, !tbaa !3
  store i32 %1, ptr %4, align 4, !tbaa !10
  call void @llvm.lifetime.start.p0(i64 4, ptr %5) #9
  store i32 0, ptr %5, align 4, !tbaa !10
  %6 = load i32, ptr %4, align 4, !tbaa !10
  %7 = icmp ne i32 %6, 230
  br i1 %7, label %8, label %11

8:                                                ; preds = %2
  %9 = load ptr, ptr %3, align 8, !tbaa !3
  %10 = load i32, ptr %4, align 4, !tbaa !10
  call void (ptr, ptr, ...) @Curl_failf(ptr noundef %9, ptr noundef @.str.71, i32 noundef %10)
  store i32 11, ptr %5, align 4, !tbaa !10
  br label %14

11:                                               ; preds = %2
  %12 = load ptr, ptr %3, align 8, !tbaa !3
  %13 = call i32 @ftp_state_loggedin(ptr noundef %12)
  store i32 %13, ptr %5, align 4, !tbaa !10
  br label %14

14:                                               ; preds = %11, %8
  %15 = load i32, ptr %5, align 4, !tbaa !10
  call void @llvm.lifetime.end.p0(i64 4, ptr %5) #9
  ret i32 %15
}